; Function Attrs: nofree norecurse nosync nounwind memory(argmem: read) uwtable
define i64 @H5VM_array_offset_pre(i32 noundef %0, ptr nocapture noundef readonly %1, ptr nocapture noundef readonly %2) local_unnamed_addr #1 {
  %.not = icmp eq i32 %0, 0
  br i1 %.not, label %._crit_edge, label %.lr.ph.preheader

.lr.ph.preheader:                                 ; preds = %3
  %wide.trip.count = zext i32 %0 to i64
  br label %.lr.ph

.lr.ph:                                           ; preds = %.lr.ph.preheader, %.lr.ph
  %indvars.iv = phi i64 [ 0, %.lr.ph.preheader ], [ %indvars.iv.next, %.lr.ph ]
  %.010 = phi i64 [ 0, %.lr.ph.preheader ], [ %9, %.lr.ph ]
  %4 = getelementptr inbounds i64, ptr %1, i64 %indvars.iv
  %5 = load i64, ptr %4, align 8
  %6 = getelementptr inbounds i64, ptr %2, i64 %indvars.iv
  %7 = load i64, ptr %6, align 8
  %8 = mul i64 %7, %5
  %9 = add i64 %8, %.010
  %indvars.iv.next = add nuw nsw i64 %indvars.iv, 1
  %exitcond.not = icmp eq i64 %indvars.iv.next, %wide.trip.count
  br i1 %exitcond.not, label %._crit_edge, label %.lr.ph

._crit_edge:                                      ; preds = %.lr.ph, %3
  %.0.lcssa = phi i64 [ 0, %3 ], [ %9, %.lr.ph ]
  ret i64 %.0.lcssa
}